; Function Attrs: nounwind uwtable
define range(i32 -1, 1) i32 @H5HF__hdr_start_iter(ptr noundef %0, ptr noundef %1, i64 noundef %2, i32 noundef %3) local_unnamed_addr #0 {
  %5 = load i8, ptr @H5HF_init_g, align 1, !tbaa !3, !range !7, !noundef !8
  %6 = trunc nuw i8 %5 to i1
  %7 = load i8, ptr @H5_libterm_g, align 1, !range !7
  %8 = trunc nuw i8 %7 to i1
  %9 = xor i1 %8, true
  %10 = select i1 %6, i1 true, i1 %9
  br i1 %10, label %11, label %21, !prof !9

11:                                               ; preds = %4
  %12 = getelementptr inbounds nuw i8, ptr %0, i64 648
  %13 = tail call i32 @H5HF__man_iter_start_entry(ptr noundef %0, ptr noundef nonnull %12, ptr noundef %1, i32 noundef %3) #7
  %14 = icmp slt i32 %13, 0
  br i1 %14, label %15, label %19

15:                                               ; preds = %11
  %16 = load i64, ptr @H5E_HEAP_g, align 8, !tbaa !10
  %17 = load i64, ptr @H5E_CANTINIT_g, align 8, !tbaa !10
  %18 = tail call i32 (ptr, ptr, i32, i64, i64, ptr, ...) @H5E_printf_stack(ptr noundef nonnull @.str, ptr noundef nonnull @__func__.H5HF__hdr_start_iter, i32 noundef 790, i64 noundef %16, i64 noundef %17, ptr noundef nonnull @.str.28) #7
  br label %21

19:                                               ; preds = %11
  %20 = getelementptr inbounds nuw i8, ptr %0, i64 520
  store i64 %2, ptr %20, align 8, !tbaa !75
  br label %21

21:                                               ; preds = %15, %19, %4
  %.0 = phi i32 [ -1, %15 ], [ 0, %19 ], [ 0, %4 ]
  ret i32 %.0
}